target datalayout = "e-m:e-p270:32:32-p271:32:32-p272:64:64-i64:64-i128:128-f80:128-n8:16:32:64-S128"
target triple = "x86_64-pc-linux-gnu"

%struct.SDL_Renderer = type { ptr, ptr, ptr, ptr, ptr, ptr, ptr, ptr, ptr, ptr, ptr, ptr, ptr, ptr, ptr, ptr, ptr, ptr, ptr, ptr, ptr, ptr, ptr, ptr, ptr, ptr, ptr, ptr, ptr, ptr, i32, i8, ptr, i8, i8, i8, i64, i64, ptr, %struct.SDL_RenderViewState, %struct.SDL_FPoint, i32, i32, ptr, ptr, ptr, i32, float, float, float, float, %struct.SDL_FColor, i32, i32, i32, ptr, ptr, ptr, ptr, i32, %struct.SDL_FColor, float, %struct.SDL_Rect, %struct.SDL_Rect, i8, i8, i8, i8, ptr, i64, i64, i8, ptr, ptr, i32, ptr, i8, ptr, ptr }
%struct.SDL_RenderViewState = type { i32, i32, %struct.SDL_Rect, %struct.SDL_Rect, %struct.SDL_Rect, %struct.SDL_Rect, i8, %struct.SDL_FPoint, i32, i32, i32, %struct.SDL_FRect, %struct.SDL_FRect, %struct.SDL_FPoint, %struct.SDL_FPoint, %struct.SDL_FPoint }
%struct.SDL_FRect = type { float, float, float, float }
%struct.SDL_FPoint = type { float, float }
%struct.SDL_FColor = type { float, float, float, float }
%struct.SDL_Rect = type { i32, i32, i32, i32 }

@.str.2 = private unnamed_addr constant [26 x i8] c"Parameter '%s' is invalid\00", align 1
@.str.5 = private unnamed_addr constant [9 x i8] c"renderer\00", align 1
@.str.29 = private unnamed_addr constant [56 x i8] c"Renderer's window has been destroyed, can't use further\00", align 1

; Function Attrs: nounwind uwtable
define hidden ptr @SDL_GetRenderWindow_REAL(ptr noundef %0) #0 {
  %2 = alloca ptr, align 8
  %3 = alloca ptr, align 8
  store ptr %0, ptr %3, align 8
  %4 = load ptr, ptr %3, align 8
  %5 = call zeroext i1 @SDL_ObjectValid(ptr noundef %4, i32 noundef 2)
  br i1 %5, label %8, label %6

6:                                                ; preds = %1
  %7 = call zeroext i1 (ptr, ...) @SDL_SetError_REAL(ptr noundef @.str.2, ptr noundef @.str.5)
  store ptr null, ptr %2, align 8
  br label %19

8:                                                ; preds = %1
  %9 = load ptr, ptr %3, align 8
  %10 = getelementptr inbounds nuw %struct.SDL_Renderer, ptr %9, i32 0, i32 76
  %11 = load i8, ptr %10, align 8, !range !5, !noundef !6
  %12 = trunc i8 %11 to i1
  br i1 %12, label %13, label %15

13:                                               ; preds = %8
  %14 = call zeroext i1 (ptr, ...) @SDL_SetError_REAL(ptr noundef @.str.29)
  store ptr null, ptr %2, align 8
  br label %19

15:                                               ; preds = %8
  %16 = load ptr, ptr %3, align 8
  %17 = getelementptr inbounds nuw %struct.SDL_Renderer, ptr %16, i32 0, i32 32
  %18 = load ptr, ptr %17, align 8
  store ptr %18, ptr %2, align 8
  br label %19

19:                                               ; preds = %15, %13, %6
  %20 = load ptr, ptr %2, align 8
  ret ptr %20
}